target datalayout = "e-m:e-p270:32:32-p271:32:32-p272:64:64-i64:64-i128:128-f80:128-n8:16:32:64-S128"
target triple = "x86_64-pc-linux-gnu"

%struct.rb_vm_struct = type { i64, %struct.anon.5, ptr, i64, %struct.ccan_list_head, i32, i8, i64, ptr, [5 x i64], i64, i64, i64, i64, i64, i64, i64, i64, i64, ptr, ptr, ptr, %struct.anon.9, ptr, i32, %struct.ccan_list_head, %union.pthread_mutex_t, i64, i64, i64, i64, i32, %struct.anon.10, ptr, ptr, ptr, ptr, ptr, ptr, ptr, ptr, i64, [1023 x ptr], %struct.anon.11 }
%struct.anon.5 = type { %struct.ccan_list_head, i32, i32, ptr, ptr, %struct.anon.6, %struct.anon.8 }
%struct.anon.6 = type { %union.pthread_mutex_t, ptr, i32, %union.pthread_cond_t, i8 }
%union.pthread_cond_t = type { %struct.__pthread_cond_s }
%struct.__pthread_cond_s = type { %union.__atomic_wide_counter, %union.__atomic_wide_counter, [2 x i32], [2 x i32], i32, i32, [2 x i32] }
%union.__atomic_wide_counter = type { i64 }
%struct.anon.8 = type { %union.pthread_mutex_t, ptr, i8, %union.pthread_cond_t, i32, i32, i32, i32, %struct.ccan_list_head, i32, %struct.ccan_list_head, %struct.ccan_list_head, %struct.ccan_list_head, i8, %union.pthread_cond_t, %union.pthread_cond_t, i8, i32, i32 }
%struct.anon.9 = type { [65 x i64] }
%struct.ccan_list_head = type { %struct.ccan_list_node }
%struct.ccan_list_node = type { ptr, ptr }
%union.pthread_mutex_t = type { %struct.__pthread_mutex_s }
%struct.__pthread_mutex_s = type { i32, i32, i32, i32, i32, i16, i16, %struct.__pthread_internal_list }
%struct.__pthread_internal_list = type { ptr, ptr }
%struct.anon.10 = type { ptr, ptr }
%struct.anon.11 = type { i64, i64, i64, i64 }
%struct.RBasic = type { i64, i64 }
%struct.RArray = type { %struct.RBasic, %union.anon.16 }
%union.anon.16 = type { %struct.anon.17 }
%struct.anon.17 = type { i64, %union.anon.18, ptr }
%union.anon.18 = type { i64 }

; Function Attrs: inlinehint nounwind sspstrong willreturn memory(read) uwtable
define internal i64 @RB_FL_TEST_RAW(i64 noundef %0, i64 noundef %1) #12 {
  %3 = alloca i64, align 8
  %4 = alloca i64, align 8
  store i64 %0, ptr %3, align 8, !tbaa !12
  store i64 %1, ptr %4, align 8, !tbaa !12
  %5 = load i64, ptr %3, align 8, !tbaa !12
  %6 = inttoptr i64 %5 to ptr
  %7 = getelementptr inbounds nuw %struct.RBasic, ptr %6, i32 0, i32 0
  %8 = load i64, ptr %7, align 8, !tbaa !139
  %9 = load i64, ptr %4, align 8, !tbaa !12
  %10 = and i64 %8, %9
  ret i64 %10
}

; Function Attrs: inlinehint nounwind sspstrong willreturn memory(read) uwtable
define internal i64 @RARRAY_EMBED_LEN(i64 noundef %0) #12 {
  %2 = alloca i64, align 8
  %3 = alloca i64, align 8
  store i64 %0, ptr %2, align 8, !tbaa !12
  call void @llvm.lifetime.start.p0(i64 8, ptr %3) #8
  %4 = load i64, ptr %2, align 8, !tbaa !12
  %5 = inttoptr i64 %4 to ptr
  %6 = getelementptr inbounds nuw %struct.RBasic, ptr %5, i32 0, i32 0
  %7 = load i64, ptr %6, align 8, !tbaa !139
  store i64 %7, ptr %3, align 8, !tbaa !12
  %8 = load i64, ptr %3, align 8, !tbaa !12
  %9 = and i64 %8, 4161536
  store i64 %9, ptr %3, align 8, !tbaa !12
  %10 = load i64, ptr %3, align 8, !tbaa !12
  %11 = lshr i64 %10, 15
  store i64 %11, ptr %3, align 8, !tbaa !12
  %12 = load i64, ptr %3, align 8, !tbaa !12
  call void @llvm.lifetime.end.p0(i64 8, ptr %3) #8
  ret i64 %12
}

; Function Attrs: inlinehint nounwind sspstrong willreturn memory(read) uwtable
define internal zeroext i1 @RB_FL_ANY_RAW(i64 noundef %0, i64 noundef %1) #12 {
  %3 = alloca i64, align 8
  %4 = alloca i64, align 8
  store i64 %0, ptr %3, align 8, !tbaa !12
  store i64 %1, ptr %4, align 8, !tbaa !12
  %5 = load i64, ptr %3, align 8, !tbaa !12
  %6 = load i64, ptr %4, align 8, !tbaa !12
  %7 = call i64 @RB_FL_TEST_RAW(i64 noundef %5, i64 noundef %6) #29
  %8 = icmp ne i64 %7, 0
  ret i1 %8
}

; Function Attrs: inlinehint nounwind sspstrong willreturn memory(none) uwtable
define internal zeroext i1 @RB_NIL_P(i64 noundef %0) #9 {
  %2 = alloca i64, align 8
  store i64 %0, ptr %2, align 8, !tbaa !12
  %3 = load i64, ptr %2, align 8, !tbaa !12
  %4 = icmp eq i64 %3, 4
  ret i1 %4
}

; Function Attrs: nounwind sspstrong uwtable
define internal void @reset_loaded_features_snapshot(ptr noundef %0) #0 {
  %2 = alloca ptr, align 8
  store ptr %0, ptr %2, align 8, !tbaa !7
  %3 = load ptr, ptr %2, align 8, !tbaa !7
  %4 = getelementptr inbounds nuw %struct.rb_vm_struct, ptr %3, i32 0, i32 16
  %5 = load i64, ptr %4, align 8, !tbaa !51
  %6 = load ptr, ptr %2, align 8, !tbaa !7
  %7 = getelementptr inbounds nuw %struct.rb_vm_struct, ptr %6, i32 0, i32 15
  %8 = load i64, ptr %7, align 8, !tbaa !128
  %9 = call i64 @rb_ary_replace(i64 noundef %5, i64 noundef %8)
  ret void
}

; Function Attrs: inlinehint nounwind sspstrong willreturn memory(none) uwtable
define internal i64 @RB_INT2FIX(i64 noundef %0) #9 {
  %2 = alloca i64, align 8
  %3 = alloca i64, align 8
  %4 = alloca i64, align 8
  %5 = alloca i64, align 8
  %6 = alloca i64, align 8
  %7 = alloca i64, align 8
  store i64 %0, ptr %2, align 8, !tbaa !12
  call void @llvm.lifetime.start.p0(i64 8, ptr %3) #8
  %8 = load i64, ptr %2, align 8, !tbaa !12
  store i64 %8, ptr %3, align 8, !tbaa !12
  call void @llvm.lifetime.start.p0(i64 8, ptr %4) #8
  %9 = load i64, ptr %3, align 8, !tbaa !12
  %10 = shl i64 %9, 1
  %11 = add i64 %10, 1
  store i64 %11, ptr %4, align 8, !tbaa !12
  call void @llvm.lifetime.start.p0(i64 8, ptr %5) #8
  %12 = load i64, ptr %4, align 8, !tbaa !12
  store i64 %12, ptr %5, align 8, !tbaa !12
  call void @llvm.lifetime.start.p0(i64 8, ptr %6) #8
  %13 = load i64, ptr %5, align 8, !tbaa !12
  store i64 %13, ptr %6, align 8, !tbaa !12
  call void @llvm.lifetime.start.p0(i64 8, ptr %7) #8
  %14 = load i64, ptr %6, align 8, !tbaa !12
  store i64 %14, ptr %7, align 8, !tbaa !12
  %15 = load i64, ptr %7, align 8, !tbaa !12
  call void @llvm.lifetime.end.p0(i64 8, ptr %7) #8
  call void @llvm.lifetime.end.p0(i64 8, ptr %6) #8
  call void @llvm.lifetime.end.p0(i64 8, ptr %5) #8
  call void @llvm.lifetime.end.p0(i64 8, ptr %4) #8
  call void @llvm.lifetime.end.p0(i64 8, ptr %3) #8
  ret i64 %15
}

; Function Attrs: inlinehint nounwind sspstrong willreturn memory(read) uwtable
define internal i64 @rb_array_len(i64 noundef %0) #12 {
  %2 = alloca i64, align 8
  %3 = alloca i64, align 8
  store i64 %0, ptr %3, align 8, !tbaa !12
  %4 = load i64, ptr %3, align 8, !tbaa !12
  %5 = call zeroext i1 @RB_FL_ANY_RAW(i64 noundef %4, i64 noundef 8192) #29
  br i1 %5, label %6, label %9

6:                                                ; preds = %1
  %7 = load i64, ptr %3, align 8, !tbaa !12
  %8 = call i64 @RARRAY_EMBED_LEN(i64 noundef %7) #29
  store i64 %8, ptr %2, align 8
  br label %15

9:                                                ; preds = %1
  %10 = load i64, ptr %3, align 8, !tbaa !12
  %11 = inttoptr i64 %10 to ptr
  %12 = getelementptr inbounds nuw %struct.RArray, ptr %11, i32 0, i32 1
  %13 = getelementptr inbounds nuw %struct.anon.17, ptr %12, i32 0, i32 0
  %14 = load i64, ptr %13, align 8, !tbaa !47
  store i64 %14, ptr %2, align 8
  br label %15

15:                                               ; preds = %9, %6
  %16 = load i64, ptr %2, align 8
  ret i64 %16
}

; Function Attrs: nounwind sspstrong uwtable
define internal ptr @get_loaded_features_index(ptr noundef %0) #0 {
  %2 = alloca ptr, align 8
  %3 = alloca i64, align 8
  %4 = alloca i32, align 4
  %5 = alloca i64, align 8
  %6 = alloca i64, align 8
  %7 = alloca i64, align 8
  %8 = alloca i64, align 8
  %9 = alloca i64, align 8
  %10 = alloca i64, align 8
  %11 = alloca i64, align 8
  %12 = alloca i64, align 8
  store ptr %0, ptr %2, align 8, !tbaa !7
  call void @llvm.lifetime.start.p0(i64 8, ptr %3) #8
  call void @llvm.lifetime.start.p0(i64 4, ptr %4) #8
  %13 = load ptr, ptr %2, align 8, !tbaa !7
  %14 = getelementptr inbounds nuw %struct.rb_vm_struct, ptr %13, i32 0, i32 16
  %15 = load i64, ptr %14, align 8, !tbaa !51
  %16 = load ptr, ptr %2, align 8, !tbaa !7
  %17 = getelementptr inbounds nuw %struct.rb_vm_struct, ptr %16, i32 0, i32 15
  %18 = load i64, ptr %17, align 8, !tbaa !128
  %19 = call i64 @rb_ary_shared_with_p(i64 noundef %15, i64 noundef %18) #29
  %20 = icmp ne i64 %19, 0
  br i1 %20, label %117, label %21

21:                                               ; preds = %1
  %22 = load ptr, ptr %2, align 8, !tbaa !7
  %23 = getelementptr inbounds nuw %struct.rb_vm_struct, ptr %22, i32 0, i32 19
  %24 = load ptr, ptr %23, align 8, !tbaa !42
  %25 = call i32 @rb_st_foreach(ptr noundef %24, ptr noundef @loaded_features_index_clear_i, i64 noundef 0)
  call void @llvm.lifetime.start.p0(i64 8, ptr %5) #8
  %26 = load ptr, ptr %2, align 8, !tbaa !7
  %27 = getelementptr inbounds nuw %struct.rb_vm_struct, ptr %26, i32 0, i32 17
  %28 = load i64, ptr %27, align 8, !tbaa !129
  store i64 %28, ptr %5, align 8, !tbaa !12
  call void @llvm.lifetime.start.p0(i64 8, ptr %6) #8
  %29 = load ptr, ptr %2, align 8, !tbaa !7
  %30 = getelementptr inbounds nuw %struct.rb_vm_struct, ptr %29, i32 0, i32 18
  %31 = load i64, ptr %30, align 8, !tbaa !130
  store i64 %31, ptr %6, align 8, !tbaa !12
  call void @llvm.lifetime.start.p0(i64 8, ptr %7) #8
  %32 = load i64, ptr %6, align 8, !tbaa !12
  %33 = call i64 @rb_hash_dup(i64 noundef %32)
  store i64 %33, ptr %7, align 8, !tbaa !12
  %34 = load i64, ptr %5, align 8, !tbaa !12
  %35 = call i64 @rb_hash_clear(i64 noundef %34)
  %36 = load i64, ptr %6, align 8, !tbaa !12
  %37 = call i64 @rb_hash_clear(i64 noundef %36)
  %38 = load ptr, ptr %2, align 8, !tbaa !7
  %39 = getelementptr inbounds nuw %struct.rb_vm_struct, ptr %38, i32 0, i32 15
  %40 = load i64, ptr %39, align 8, !tbaa !128
  store i64 %40, ptr %3, align 8, !tbaa !12
  store i32 0, ptr %4, align 4, !tbaa !39
  br label %41

41:                                               ; preds = %69, %21
  %42 = load i32, ptr %4, align 4, !tbaa !39
  %43 = sext i32 %42 to i64
  %44 = load i64, ptr %3, align 8, !tbaa !12
  %45 = call i64 @rb_array_len(i64 noundef %44) #29
  %46 = icmp slt i64 %43, %45
  br i1 %46, label %47, label %72

47:                                               ; preds = %41
  call void @llvm.lifetime.start.p0(i64 8, ptr %8) #8
  call void @llvm.lifetime.start.p0(i64 8, ptr %9) #8
  %48 = load i64, ptr %3, align 8, !tbaa !12
  %49 = load i32, ptr %4, align 4, !tbaa !39
  %50 = sext i32 %49 to i64
  %51 = call i64 @rb_ary_entry(i64 noundef %48, i64 noundef %50) #29
  store i64 %51, ptr %8, align 8, !tbaa !12
  store i64 %51, ptr %9, align 8, !tbaa !12
  %52 = call i64 @rb_string_value(ptr noundef %9)
  %53 = load i64, ptr %9, align 8, !tbaa !12
  %54 = call i64 @rb_fstring(i64 noundef %53)
  store i64 %54, ptr %9, align 8, !tbaa !12
  %55 = load i64, ptr %9, align 8, !tbaa !12
  %56 = load i64, ptr %8, align 8, !tbaa !12
  %57 = icmp ne i64 %55, %56
  br i1 %57, label %58, label %63

58:                                               ; preds = %47
  %59 = load i64, ptr %3, align 8, !tbaa !12
  %60 = load i32, ptr %4, align 4, !tbaa !39
  %61 = sext i32 %60 to i64
  %62 = load i64, ptr %9, align 8, !tbaa !12
  call void @rb_ary_store(i64 noundef %59, i64 noundef %61, i64 noundef %62)
  br label %63

63:                                               ; preds = %58, %47
  %64 = load ptr, ptr %2, align 8, !tbaa !7
  %65 = load i64, ptr %9, align 8, !tbaa !12
  %66 = load i32, ptr %4, align 4, !tbaa !39
  %67 = sext i32 %66 to i64
  %68 = call i64 @RB_INT2FIX(i64 noundef %67) #30
  call void @features_index_add(ptr noundef %64, i64 noundef %65, i64 noundef %68)
  call void @llvm.lifetime.end.p0(i64 8, ptr %9) #8
  call void @llvm.lifetime.end.p0(i64 8, ptr %8) #8
  br label %69

69:                                               ; preds = %63
  %70 = load i32, ptr %4, align 4, !tbaa !39
  %71 = add i32 %70, 1
  store i32 %71, ptr %4, align 4, !tbaa !39
  br label %41, !llvm.loop !144

72:                                               ; preds = %41
  %73 = load ptr, ptr %2, align 8, !tbaa !7
  call void @reset_loaded_features_snapshot(ptr noundef %73)
  %74 = load ptr, ptr %2, align 8, !tbaa !7
  %75 = getelementptr inbounds nuw %struct.rb_vm_struct, ptr %74, i32 0, i32 16
  %76 = load i64, ptr %75, align 8, !tbaa !51
  %77 = call i64 @rb_ary_dup(i64 noundef %76)
  store i64 %77, ptr %3, align 8, !tbaa !12
  call void @llvm.lifetime.start.p0(i64 8, ptr %10) #8
  %78 = load i64, ptr %3, align 8, !tbaa !12
  %79 = call i64 @rb_array_len(i64 noundef %78) #29
  store i64 %79, ptr %10, align 8, !tbaa !12
  store i32 0, ptr %4, align 4, !tbaa !39
  br label %80

80:                                               ; preds = %113, %72
  %81 = load i32, ptr %4, align 4, !tbaa !39
  %82 = sext i32 %81 to i64
  %83 = load i64, ptr %10, align 8, !tbaa !12
  %84 = icmp slt i64 %82, %83
  br i1 %84, label %85, label %116

85:                                               ; preds = %80
  call void @llvm.lifetime.start.p0(i64 8, ptr %11) #8
  %86 = load i64, ptr %3, align 8, !tbaa !12
  %87 = load i32, ptr %4, align 4, !tbaa !39
  %88 = sext i32 %87 to i64
  %89 = call i64 @rb_ary_entry(i64 noundef %86, i64 noundef %88) #29
  store i64 %89, ptr %11, align 8, !tbaa !12
  call void @llvm.lifetime.start.p0(i64 8, ptr %12) #8
  %90 = load i64, ptr %7, align 8, !tbaa !12
  %91 = load i64, ptr %11, align 8, !tbaa !12
  %92 = call i64 @rb_hash_aref(i64 noundef %90, i64 noundef %91)
  store i64 %92, ptr %12, align 8, !tbaa !12
  %93 = load i64, ptr %12, align 8, !tbaa !12
  %94 = call zeroext i1 @RB_NIL_P(i64 noundef %93) #30
  br i1 %94, label %95, label %105

95:                                               ; preds = %85
  %96 = load i64, ptr %11, align 8, !tbaa !12
  %97 = call i64 @rb_check_realpath(i64 noundef 4, i64 noundef %96, ptr noundef null)
  store i64 %97, ptr %12, align 8, !tbaa !12
  %98 = load i64, ptr %12, align 8, !tbaa !12
  %99 = call zeroext i1 @RB_NIL_P(i64 noundef %98) #30
  br i1 %99, label %100, label %102

100:                                              ; preds = %95
  %101 = load i64, ptr %11, align 8, !tbaa !12
  store i64 %101, ptr %12, align 8, !tbaa !12
  br label %102

102:                                              ; preds = %100, %95
  %103 = load i64, ptr %12, align 8, !tbaa !12
  %104 = call i64 @rb_fstring(i64 noundef %103)
  store i64 %104, ptr %12, align 8, !tbaa !12
  br label %105

105:                                              ; preds = %102, %85
  %106 = load i64, ptr %5, align 8, !tbaa !12
  %107 = load i64, ptr %12, align 8, !tbaa !12
  %108 = call i64 @rb_hash_aset(i64 noundef %106, i64 noundef %107, i64 noundef 20)
  %109 = load i64, ptr %6, align 8, !tbaa !12
  %110 = load i64, ptr %11, align 8, !tbaa !12
  %111 = load i64, ptr %12, align 8, !tbaa !12
  %112 = call i64 @rb_hash_aset(i64 noundef %109, i64 noundef %110, i64 noundef %111)
  call void @llvm.lifetime.end.p0(i64 8, ptr %12) #8
  call void @llvm.lifetime.end.p0(i64 8, ptr %11) #8
  br label %113

113:                                              ; preds = %105
  %114 = load i32, ptr %4, align 4, !tbaa !39
  %115 = add i32 %114, 1
  store i32 %115, ptr %4, align 4, !tbaa !39
  br label %80, !llvm.loop !145

116:                                              ; preds = %80
  call void @llvm.lifetime.end.p0(i64 8, ptr %10) #8
  call void @llvm.lifetime.end.p0(i64 8, ptr %7) #8
  call void @llvm.lifetime.end.p0(i64 8, ptr %6) #8
  call void @llvm.lifetime.end.p0(i64 8, ptr %5) #8
  br label %117

117:                                              ; preds = %116, %1
  %118 = load ptr, ptr %2, align 8, !tbaa !7
  %119 = getelementptr inbounds nuw %struct.rb_vm_struct, ptr %118, i32 0, i32 19
  %120 = load ptr, ptr %119, align 8, !tbaa !42
  call void @llvm.lifetime.end.p0(i64 4, ptr %4) #8
  call void @llvm.lifetime.end.p0(i64 8, ptr %3) #8
  ret ptr %120
}