; Function Attrs: nounwind sspstrong uwtable
define internal fastcc ptr @get_loaded_features_index(ptr noundef %0) unnamed_addr #0 {
  %2 = alloca i64, align 8
  %3 = getelementptr inbounds nuw i8, ptr %0, i64 616
  %4 = load i64, ptr %3, align 8, !tbaa !53
  %5 = getelementptr inbounds nuw i8, ptr %0, i64 608
  %6 = load i64, ptr %5, align 8, !tbaa !52
  %7 = tail call i64 @rb_ary_shared_with_p(i64 noundef %4, i64 noundef %6) #25
  %.not = icmp eq i64 %7, 0
  br i1 %.not, label %8, label %.loopexit

8:                                                ; preds = %1
  %9 = getelementptr inbounds nuw i8, ptr %0, i64 640
  %10 = load ptr, ptr %9, align 8, !tbaa !41
  %11 = tail call i32 @rb_st_foreach(ptr noundef %10, ptr noundef nonnull @loaded_features_index_clear_i, i64 noundef 0) #7
  %12 = getelementptr inbounds nuw i8, ptr %0, i64 624
  %13 = load i64, ptr %12, align 8, !tbaa !126
  %14 = getelementptr inbounds nuw i8, ptr %0, i64 632
  %15 = load i64, ptr %14, align 8, !tbaa !127
  %16 = tail call i64 @rb_hash_dup(i64 noundef %15) #7
  %17 = tail call i64 @rb_hash_clear(i64 noundef %13) #7
  %18 = tail call i64 @rb_hash_clear(i64 noundef %15) #7
  %19 = load i64, ptr %5, align 8, !tbaa !52
  %20 = inttoptr i64 %19 to ptr
  %21 = getelementptr inbounds nuw i8, ptr %20, i64 16
  br label %22

22:                                               ; preds = %38, %8
  %.039 = phi i32 [ 0, %8 ], [ %42, %38 ]
  %23 = sext i32 %.039 to i64
  %24 = load i64, ptr %20, align 8, !tbaa !44
  %25 = and i64 %24, 8192
  %.not.i = icmp eq i64 %25, 0
  br i1 %.not.i, label %29, label %26

26:                                               ; preds = %22
  %27 = lshr i64 %24, 15
  %28 = and i64 %27, 127
  br label %rb_array_len.exit

29:                                               ; preds = %22
  %30 = load i64, ptr %21, align 8, !tbaa !43
  br label %rb_array_len.exit

rb_array_len.exit:                                ; preds = %26, %29
  %.0.i = phi i64 [ %28, %26 ], [ %30, %29 ]
  %31 = icmp sgt i64 %.0.i, %23
  br i1 %31, label %32, label %43

32:                                               ; preds = %rb_array_len.exit
  call void @llvm.lifetime.start.p0(i64 8, ptr nonnull %2) #7
  %33 = call i64 @rb_ary_entry(i64 noundef %19, i64 noundef %23) #25
  store i64 %33, ptr %2, align 8, !tbaa !42
  %34 = call i64 @rb_string_value(ptr noundef nonnull %2) #7
  %35 = load i64, ptr %2, align 8, !tbaa !42
  %36 = call i64 @rb_fstring(i64 noundef %35) #7
  store i64 %36, ptr %2, align 8, !tbaa !42
  %.not44 = icmp eq i64 %36, %33
  br i1 %.not44, label %38, label %37

37:                                               ; preds = %32
  call void @rb_ary_store(i64 noundef %19, i64 noundef %23, i64 noundef %36) #7
  %.pre = load i64, ptr %2, align 8, !tbaa !42
  br label %38

38:                                               ; preds = %37, %32
  %39 = phi i64 [ %.pre, %37 ], [ %33, %32 ]
  %40 = shl nsw i64 %23, 1
  %41 = or disjoint i64 %40, 1
  call fastcc void @features_index_add(ptr noundef %0, i64 noundef %39, i64 noundef %41)
  call void @llvm.lifetime.end.p0(i64 8, ptr nonnull %2) #7
  %42 = add i32 %.039, 1
  br label %22, !llvm.loop !203

43:                                               ; preds = %rb_array_len.exit
  %.val = load i64, ptr %5, align 8, !tbaa !52
  %.val45 = load i64, ptr %3, align 8, !tbaa !53
  %44 = call i64 @rb_ary_replace(i64 noundef %.val45, i64 noundef %.val) #7
  %45 = load i64, ptr %3, align 8, !tbaa !53
  %46 = call i64 @rb_ary_dup(i64 noundef %45) #7
  %47 = inttoptr i64 %46 to ptr
  %48 = load i64, ptr %47, align 8, !tbaa !44
  %49 = and i64 %48, 8192
  %.not.i46 = icmp eq i64 %49, 0
  br i1 %.not.i46, label %53, label %50

50:                                               ; preds = %43
  %51 = lshr i64 %48, 15
  %52 = and i64 %51, 127
  br label %rb_array_len.exit48

53:                                               ; preds = %43
  %54 = getelementptr inbounds nuw i8, ptr %47, i64 16
  %55 = load i64, ptr %54, align 8, !tbaa !43
  br label %rb_array_len.exit48

rb_array_len.exit48:                              ; preds = %50, %53
  %.0.i47 = phi i64 [ %52, %50 ], [ %55, %53 ]
  %56 = icmp sgt i64 %.0.i47, 0
  br i1 %56, label %.lr.ph, label %.loopexit

.lr.ph:                                           ; preds = %rb_array_len.exit48, %65
  %57 = phi i64 [ %69, %65 ], [ 0, %rb_array_len.exit48 ]
  %.14049 = phi i32 [ %68, %65 ], [ 0, %rb_array_len.exit48 ]
  %58 = call i64 @rb_ary_entry(i64 noundef %46, i64 noundef %57) #25
  %59 = call i64 @rb_hash_aref(i64 noundef %16, i64 noundef %58) #7
  %60 = icmp eq i64 %59, 4
  br i1 %60, label %61, label %65

61:                                               ; preds = %.lr.ph
  %62 = call i64 @rb_check_realpath(i64 noundef 4, i64 noundef %58, ptr noundef null) #7
  %63 = icmp eq i64 %62, 4
  %spec.select = select i1 %63, i64 %58, i64 %62
  %64 = call i64 @rb_fstring(i64 noundef %spec.select) #7
  br label %65

65:                                               ; preds = %61, %.lr.ph
  %.0 = phi i64 [ %64, %61 ], [ %59, %.lr.ph ]
  %66 = call i64 @rb_hash_aset(i64 noundef %13, i64 noundef %.0, i64 noundef 20) #7
  %67 = call i64 @rb_hash_aset(i64 noundef %15, i64 noundef %58, i64 noundef %.0) #7
  %68 = add i32 %.14049, 1
  %69 = sext i32 %68 to i64
  %70 = icmp sgt i64 %.0.i47, %69
  br i1 %70, label %.lr.ph, label %.loopexit, !llvm.loop !204

.loopexit:                                        ; preds = %65, %rb_array_len.exit48, %1
  %71 = getelementptr inbounds nuw i8, ptr %0, i64 640
  %72 = load ptr, ptr %71, align 8, !tbaa !41
  ret ptr %72
}